; Function Attrs: nounwind uwtable
define i64 @H5Fget_file_image(i64 noundef %0, ptr noundef %1, i64 noundef %2) local_unnamed_addr #0 {
  %4 = alloca %struct.H5VL_optional_args_t, align 8
  %5 = alloca %union.H5VL_native_file_optional_args_t, align 8
  %6 = alloca i64, align 8
  %7 = alloca %struct.H5CX_node_t, align 8
  call void @llvm.lifetime.start.p0(i64 16, ptr nonnull %4) #6
  call void @llvm.lifetime.start.p0(i64 40, ptr nonnull %5) #6
  call void @llvm.lifetime.start.p0(i64 8, ptr nonnull %6) #6
  store i64 0, ptr %6, align 8, !tbaa !11
  call void @llvm.lifetime.start.p0(i64 480, ptr nonnull %7) #6
  call void @llvm.memset.p0.i64(ptr noundef nonnull align 8 dereferenceable(480) %7, i8 0, i64 480, i1 false)
  %8 = load i8, ptr @H5_libinit_g, align 1, !tbaa !3, !range !7, !noundef !8
  %9 = trunc nuw i8 %8 to i1
  %10 = load i8, ptr @H5_libterm_g, align 1, !range !7
  %11 = trunc nuw i8 %10 to i1
  %12 = select i1 %9, i1 true, i1 %11
  br i1 %12, label %20, label %13, !prof !9

13:                                               ; preds = %3
  %14 = tail call i32 @H5_init_library() #6
  %15 = icmp slt i32 %14, 0
  br i1 %15, label %16, label %._crit_edge, !prof !10

._crit_edge:                                      ; preds = %13
  %.pre = load i8, ptr @H5_libterm_g, align 1, !range !7
  br label %20

16:                                               ; preds = %13
  %17 = load i64, ptr @H5E_FUNC_g, align 8, !tbaa !11
  %18 = load i64, ptr @H5E_CANTINIT_g, align 8, !tbaa !11
  %19 = tail call i32 (ptr, ptr, i32, i64, i64, ptr, ...) @H5E_printf_stack(ptr noundef nonnull @.str, ptr noundef nonnull @__func__.H5Fget_file_image, i32 noundef 1733, i64 noundef %17, i64 noundef %18, ptr noundef nonnull @.str.1) #6
  br label %.thread22

20:                                               ; preds = %._crit_edge, %3
  %21 = phi i8 [ %.pre, %._crit_edge ], [ %10, %3 ]
  %22 = load i8, ptr @H5F_init_g, align 1, !tbaa !3, !range !7, !noundef !8
  %23 = trunc nuw i8 %22 to i1
  %24 = trunc nuw i8 %21 to i1
  %25 = select i1 %23, i1 true, i1 %24
  br i1 %25, label %33, label %26, !prof !9

26:                                               ; preds = %20
  store i8 1, ptr @H5F_init_g, align 1, !tbaa !3
  %27 = tail call i32 @H5F__init_package() #6
  %28 = icmp slt i32 %27, 0
  br i1 %28, label %29, label %33, !prof !13

29:                                               ; preds = %26
  store i8 0, ptr @H5F_init_g, align 1, !tbaa !3
  %30 = load i64, ptr @H5E_FUNC_g, align 8, !tbaa !11
  %31 = load i64, ptr @H5E_CANTINIT_g, align 8, !tbaa !11
  %32 = tail call i32 (ptr, ptr, i32, i64, i64, ptr, ...) @H5E_printf_stack(ptr noundef nonnull @.str, ptr noundef nonnull @__func__.H5Fget_file_image, i32 noundef 1733, i64 noundef %30, i64 noundef %31, ptr noundef nonnull @.str.2) #6
  br label %.thread22

33:                                               ; preds = %20, %26
  %34 = call i32 @H5CX_push(ptr noundef nonnull %7) #6
  %35 = icmp slt i32 %34, 0
  br i1 %35, label %36, label %40, !prof !10

36:                                               ; preds = %33
  %37 = load i64, ptr @H5E_FUNC_g, align 8, !tbaa !11
  %38 = load i64, ptr @H5E_CANTSET_g, align 8, !tbaa !11
  %39 = call i32 (ptr, ptr, i32, i64, i64, ptr, ...) @H5E_printf_stack(ptr noundef nonnull @.str, ptr noundef nonnull @__func__.H5Fget_file_image, i32 noundef 1733, i64 noundef %37, i64 noundef %38, ptr noundef nonnull @.str.3) #6
  br label %.thread22

40:                                               ; preds = %33
  %41 = call i32 @H5E_clear_stack() #6
  %42 = call ptr @H5VL_vol_object_verify(i64 noundef %0, i32 noundef 1) #6
  %43 = icmp eq ptr %42, null
  br i1 %43, label %44, label %48, !prof !14

44:                                               ; preds = %40
  %45 = load i64, ptr @H5E_ARGS_g, align 8, !tbaa !11
  %46 = load i64, ptr @H5E_BADVALUE_g, align 8, !tbaa !11
  %47 = call i32 (ptr, ptr, i32, i64, i64, ptr, ...) @H5E_printf_stack(ptr noundef nonnull @.str, ptr noundef nonnull @__func__.H5Fget_file_image, i32 noundef 1737, i64 noundef %45, i64 noundef %46, ptr noundef nonnull @.str.45) #6
  br label %.thread28

48:                                               ; preds = %40
  store i64 %2, ptr %5, align 8, !tbaa !18
  %49 = getelementptr inbounds nuw i8, ptr %5, i64 8
  store ptr %1, ptr %49, align 8, !tbaa !18
  %50 = getelementptr inbounds nuw i8, ptr %5, i64 16
  store ptr %6, ptr %50, align 8, !tbaa !18
  store i32 1, ptr %4, align 8, !tbaa !28
  %51 = getelementptr inbounds nuw i8, ptr %4, i64 8
  store ptr %5, ptr %51, align 8, !tbaa !30
  %52 = load i64, ptr @H5P_LST_DATASET_XFER_ID_g, align 8, !tbaa !11
  %53 = call i32 @H5VL_file_optional(ptr noundef nonnull %42, ptr noundef nonnull %4, i64 noundef %52, ptr noundef null) #6
  %54 = icmp slt i32 %53, 0
  br i1 %54, label %55, label %60, !prof !14

55:                                               ; preds = %48
  %56 = load i64, ptr @H5E_FILE_g, align 8, !tbaa !11
  %57 = load i64, ptr @H5E_CANTGET_g, align 8, !tbaa !11
  %58 = call i32 (ptr, ptr, i32, i64, i64, ptr, ...) @H5E_printf_stack(ptr noundef nonnull @.str, ptr noundef nonnull @__func__.H5Fget_file_image, i32 noundef 1748, i64 noundef %56, i64 noundef %57, ptr noundef nonnull @.str.84) #6
  br label %.thread28

.thread28:                                        ; preds = %55, %44
  %59 = call i32 @H5CX_pop(i1 noundef zeroext true) #6
  br label %.thread22

60:                                               ; preds = %48
  %61 = load i64, ptr %6, align 8, !tbaa !11
  %62 = call i32 @H5CX_pop(i1 noundef zeroext true) #6
  br label %64

.thread22:                                        ; preds = %36, %29, %16, %.thread28
  %63 = call i32 @H5E_dump_api_stack() #6
  br label %64

64:                                               ; preds = %60, %.thread22
  %.0121725 = phi i64 [ -1, %.thread22 ], [ %61, %60 ]
  call void @llvm.lifetime.end.p0(i64 480, ptr nonnull %7) #6
  call void @llvm.lifetime.end.p0(i64 8, ptr nonnull %6) #6
  call void @llvm.lifetime.end.p0(i64 40, ptr nonnull %5) #6
  call void @llvm.lifetime.end.p0(i64 16, ptr nonnull %4) #6
  ret i64 %.0121725
}